target datalayout = "e-m:e-p270:32:32-p271:32:32-p272:64:64-i64:64-i128:128-f80:128-n8:16:32:64-S128"
target triple = "x86_64-pc-linux-gnu"

%struct.FT_StreamRec_ = type { ptr, i64, i64, %union.FT_StreamDesc_, %union.FT_StreamDesc_, ptr, ptr, ptr, ptr, ptr }
%union.FT_StreamDesc_ = type { i64 }
%struct.FT_LzwStateRec_ = type { i32, i32, [16 x i8], i32, i32, i8, i64, i32, i32, i32, i32, i32, i32, i32, i32, i32, ptr, ptr, i32, ptr, i32, i64, [64 x i8], ptr, ptr }

; Function Attrs: nounwind uwtable
define hidden void @ft_lzwstate_reset(ptr noundef %0) #0 {
  %2 = alloca ptr, align 8
  store ptr %0, ptr %2, align 8, !tbaa !24
  %3 = load ptr, ptr %2, align 8, !tbaa !24
  %4 = getelementptr inbounds nuw %struct.FT_LzwStateRec_, ptr %3, i32 0, i32 1
  store i32 0, ptr %4, align 4, !tbaa !37
  %5 = load ptr, ptr %2, align 8, !tbaa !24
  %6 = getelementptr inbounds nuw %struct.FT_LzwStateRec_, ptr %5, i32 0, i32 3
  store i32 0, ptr %6, align 8, !tbaa !38
  %7 = load ptr, ptr %2, align 8, !tbaa !24
  %8 = getelementptr inbounds nuw %struct.FT_LzwStateRec_, ptr %7, i32 0, i32 4
  store i32 0, ptr %8, align 4, !tbaa !39
  %9 = load ptr, ptr %2, align 8, !tbaa !24
  %10 = getelementptr inbounds nuw %struct.FT_LzwStateRec_, ptr %9, i32 0, i32 5
  store i8 0, ptr %10, align 8, !tbaa !40
  %11 = load ptr, ptr %2, align 8, !tbaa !24
  %12 = getelementptr inbounds nuw %struct.FT_LzwStateRec_, ptr %11, i32 0, i32 6
  store i64 0, ptr %12, align 8, !tbaa !41
  %13 = load ptr, ptr %2, align 8, !tbaa !24
  %14 = getelementptr inbounds nuw %struct.FT_LzwStateRec_, ptr %13, i32 0, i32 20
  store i32 0, ptr %14, align 8, !tbaa !42
  %15 = load ptr, ptr %2, align 8, !tbaa !24
  %16 = getelementptr inbounds nuw %struct.FT_LzwStateRec_, ptr %15, i32 0, i32 10
  store i32 9, ptr %16, align 4, !tbaa !43
  %17 = load ptr, ptr %2, align 8, !tbaa !24
  %18 = getelementptr inbounds nuw %struct.FT_LzwStateRec_, ptr %17, i32 0, i32 0
  store i32 0, ptr %18, align 8, !tbaa !44
  ret void
}

; Function Attrs: nounwind uwtable
define hidden void @ft_lzwstate_init(ptr noundef %0, ptr noundef %1) #0 {
  %3 = alloca ptr, align 8
  %4 = alloca ptr, align 8
  store ptr %0, ptr %3, align 8, !tbaa !24
  store ptr %1, ptr %4, align 8, !tbaa !3
  %5 = load ptr, ptr %3, align 8, !tbaa !24
  call void @llvm.memset.p0.i64(ptr align 8 %5, i8 0, i64 216, i1 false)
  %6 = load ptr, ptr %4, align 8, !tbaa !3
  %7 = load ptr, ptr %3, align 8, !tbaa !24
  %8 = getelementptr inbounds nuw %struct.FT_LzwStateRec_, ptr %7, i32 0, i32 23
  store ptr %6, ptr %8, align 8, !tbaa !45
  %9 = load ptr, ptr %4, align 8, !tbaa !3
  %10 = getelementptr inbounds nuw %struct.FT_StreamRec_, ptr %9, i32 0, i32 7
  %11 = load ptr, ptr %10, align 8, !tbaa !12
  %12 = load ptr, ptr %3, align 8, !tbaa !24
  %13 = getelementptr inbounds nuw %struct.FT_LzwStateRec_, ptr %12, i32 0, i32 24
  store ptr %11, ptr %13, align 8, !tbaa !46
  %14 = load ptr, ptr %3, align 8, !tbaa !24
  %15 = getelementptr inbounds nuw %struct.FT_LzwStateRec_, ptr %14, i32 0, i32 16
  store ptr null, ptr %15, align 8, !tbaa !47
  %16 = load ptr, ptr %3, align 8, !tbaa !24
  %17 = getelementptr inbounds nuw %struct.FT_LzwStateRec_, ptr %16, i32 0, i32 17
  store ptr null, ptr %17, align 8, !tbaa !48
  %18 = load ptr, ptr %3, align 8, !tbaa !24
  %19 = getelementptr inbounds nuw %struct.FT_LzwStateRec_, ptr %18, i32 0, i32 18
  store i32 0, ptr %19, align 8, !tbaa !49
  %20 = load ptr, ptr %3, align 8, !tbaa !24
  %21 = getelementptr inbounds nuw %struct.FT_LzwStateRec_, ptr %20, i32 0, i32 22
  %22 = getelementptr inbounds [64 x i8], ptr %21, i64 0, i64 0
  %23 = load ptr, ptr %3, align 8, !tbaa !24
  %24 = getelementptr inbounds nuw %struct.FT_LzwStateRec_, ptr %23, i32 0, i32 19
  store ptr %22, ptr %24, align 8, !tbaa !50
  %25 = load ptr, ptr %3, align 8, !tbaa !24
  %26 = getelementptr inbounds nuw %struct.FT_LzwStateRec_, ptr %25, i32 0, i32 21
  store i64 64, ptr %26, align 8, !tbaa !51
  %27 = load ptr, ptr %3, align 8, !tbaa !24
  call void @ft_lzwstate_reset(ptr noundef %27)
  ret void
}