; Function Attrs: mustprogress nofree norecurse nosync nounwind willreturn memory(argmem: readwrite) uwtable
define hidden void @ft_lzwstate_init(ptr noundef initializes((0, 216)) %0, ptr noundef %1) local_unnamed_addr #5 {
  tail call void @llvm.memset.p0.i64(ptr noundef nonnull align 8 dereferenceable(216) %0, i8 0, i64 216, i1 false)
  %3 = getelementptr inbounds nuw i8, ptr %0, i64 200
  store ptr %1, ptr %3, align 8, !tbaa !24
  %4 = getelementptr inbounds nuw i8, ptr %1, i64 56
  %5 = load ptr, ptr %4, align 8, !tbaa !3
  %6 = getelementptr inbounds nuw i8, ptr %0, i64 208
  store ptr %5, ptr %6, align 8, !tbaa !25
  %7 = getelementptr inbounds nuw i8, ptr %0, i64 88
  %8 = getelementptr inbounds nuw i8, ptr %0, i64 136
  %9 = getelementptr inbounds nuw i8, ptr %0, i64 112
  tail call void @llvm.memset.p0.i64(ptr noundef nonnull align 8 dereferenceable(20) %7, i8 0, i64 20, i1 false)
  store ptr %8, ptr %9, align 8, !tbaa !26
  %10 = getelementptr inbounds nuw i8, ptr %0, i64 128
  store i64 64, ptr %10, align 8, !tbaa !27
  %11 = getelementptr inbounds nuw i8, ptr %0, i64 24
  %12 = getelementptr inbounds nuw i8, ptr %0, i64 40
  store i64 0, ptr %12, align 8, !tbaa !35
  %13 = getelementptr inbounds nuw i8, ptr %0, i64 60
  tail call void @llvm.memset.p0.i64(ptr noundef nonnull align 8 dereferenceable(9) %11, i8 0, i64 9, i1 false)
  store i32 9, ptr %13, align 4, !tbaa !28
  ret void
}